target datalayout = "e-m:e-p270:32:32-p271:32:32-p272:64:64-i64:64-i128:128-f80:128-n8:16:32:64-S128"
target triple = "x86_64-pc-linux-gnu"

%"class.euf::justification" = type { i32, %union.anon, %union.anon.17 }
%union.anon = type { ptr }
%union.anon.17 = type { ptr }
%class.ptr_vector.7 = type { %class.vector.8 }
%class.vector.8 = type { ptr }
%"class.euf::enode" = type { ptr, i8, i8, i8, i8, i8, i8, i8, i8, i8, i32, i32, i32, i32, i32, i32, %class.ptr_vector.7, ptr, ptr, ptr, ptr, %class.id_var_list, %"class.euf::justification", %"class.euf::justification", i32, i8, %class.approx_set, %class.approx_set, [0 x ptr] }
%class.id_var_list = type { i32, ptr }
%class.approx_set = type { %class.approx_set_tpl }
%class.approx_set_tpl = type { i64 }

@.str.3 = private unnamed_addr constant [29 x i8] c"UNEXPECTED CODE WAS REACHED.\00", align 1
@.str.33 = private unnamed_addr constant [106 x i8] c"generated/home/dtcxzyw/WorkSpace/Projects/compilers/llvm-opt-benchmark/bench/z3/z3/src/util/id_var_list.h\00", align 1

; Function Attrs: mustprogress nounwind uwtable
define linkonce_odr hidden void @_ZN11id_var_listILin1ELin1EE8set_nextEPS0_(ptr noundef nonnull align 8 dereferenceable(16) %0, ptr noundef %1) #6 comdat align 2 {
  %3 = alloca ptr, align 8
  %4 = alloca ptr, align 8
  store ptr %0, ptr %3, align 8, !tbaa !332
  store ptr %1, ptr %4, align 8, !tbaa !332
  %5 = load ptr, ptr %3, align 8
  %6 = load ptr, ptr %4, align 8, !tbaa !332
  %7 = getelementptr inbounds nuw %class.id_var_list, ptr %5, i32 0, i32 1
  store ptr %6, ptr %7, align 8, !tbaa !452
  ret void
}

; Function Attrs: mustprogress nounwind uwtable
define linkonce_odr hidden noundef ptr @_ZNK11id_var_listILin1ELin1EE8get_nextEv(ptr noundef nonnull align 8 dereferenceable(16) %0) #6 comdat align 2 {
  %2 = alloca ptr, align 8
  store ptr %0, ptr %2, align 8, !tbaa !332
  %3 = load ptr, ptr %2, align 8
  %4 = getelementptr inbounds nuw %class.id_var_list, ptr %3, i32 0, i32 1
  %5 = load ptr, ptr %4, align 8, !tbaa !452
  ret ptr %5
}

; Function Attrs: mustprogress nounwind uwtable
define linkonce_odr hidden noundef i32 @_ZNK11id_var_listILin1ELin1EE7get_varEv(ptr noundef nonnull align 8 dereferenceable(16) %0) #6 comdat align 2 {
  %2 = alloca ptr, align 8
  store ptr %0, ptr %2, align 8, !tbaa !332
  %3 = load ptr, ptr %2, align 8
  %4 = load i32, ptr %3, align 8
  %5 = ashr i32 %4, 8
  ret i32 %5
}

; Function Attrs: mustprogress nounwind uwtable
define linkonce_odr hidden noundef i32 @_ZNK11id_var_listILin1ELin1EE6get_idEv(ptr noundef nonnull align 8 dereferenceable(16) %0) #6 comdat align 2 {
  %2 = alloca ptr, align 8
  store ptr %0, ptr %2, align 8, !tbaa !332
  %3 = load ptr, ptr %2, align 8
  %4 = load i32, ptr %3, align 8
  %5 = shl i32 %4, 24
  %6 = ashr i32 %5, 24
  ret i32 %6
}

; Function Attrs: mustprogress uwtable
define linkonce_odr hidden noundef zeroext i1 @_ZNK11id_var_listILin1ELin1EE5emptyEv(ptr noundef nonnull align 8 dereferenceable(16) %0) #4 comdat align 2 {
  %2 = alloca ptr, align 8
  store ptr %0, ptr %2, align 8, !tbaa !332
  %3 = load ptr, ptr %2, align 8
  %4 = call noundef i32 @_ZNK11id_var_listILin1ELin1EE7get_varEv(ptr noundef nonnull align 8 dereferenceable(16) %3)
  %5 = icmp eq i32 %4, -1
  ret i1 %5
}

; Function Attrs: mustprogress uwtable
define linkonce_odr hidden void @_ZN11id_var_listILin1ELin1EE7del_varEi(ptr noundef nonnull align 8 dereferenceable(16) %0, i32 noundef %1) #4 comdat align 2 {
  %3 = alloca ptr, align 8
  %4 = alloca i32, align 4
  %5 = alloca ptr, align 8
  %6 = alloca ptr, align 8
  %7 = alloca i32, align 4
  store ptr %0, ptr %3, align 8, !tbaa !332
  store i32 %1, ptr %4, align 4, !tbaa !10
  %8 = load ptr, ptr %3, align 8
  %9 = call noundef i32 @_ZNK11id_var_listILin1ELin1EE6get_idEv(ptr noundef nonnull align 8 dereferenceable(16) %8)
  %10 = load i32, ptr %4, align 4, !tbaa !10
  %11 = icmp eq i32 %9, %10
  br i1 %11, label %12, label %44

12:                                               ; preds = %2
  %13 = getelementptr inbounds nuw %class.id_var_list, ptr %8, i32 0, i32 1
  %14 = load ptr, ptr %13, align 8, !tbaa !452
  %15 = icmp ne ptr %14, null
  br i1 %15, label %23, label %16

16:                                               ; preds = %12
  %17 = load i32, ptr %8, align 8
  %18 = and i32 %17, 255
  %19 = or i32 %18, -256
  store i32 %19, ptr %8, align 8
  %20 = load i32, ptr %8, align 8
  %21 = and i32 %20, -256
  %22 = or i32 %21, 255
  store i32 %22, ptr %8, align 8
  br label %43

23:                                               ; preds = %12
  %24 = getelementptr inbounds nuw %class.id_var_list, ptr %8, i32 0, i32 1
  %25 = load ptr, ptr %24, align 8, !tbaa !452
  %26 = call noundef i32 @_ZNK11id_var_listILin1ELin1EE7get_varEv(ptr noundef nonnull align 8 dereferenceable(16) %25)
  %27 = load i32, ptr %8, align 8
  %28 = and i32 %26, 16777215
  %29 = shl i32 %28, 8
  %30 = and i32 %27, 255
  %31 = or i32 %30, %29
  store i32 %31, ptr %8, align 8
  %32 = getelementptr inbounds nuw %class.id_var_list, ptr %8, i32 0, i32 1
  %33 = load ptr, ptr %32, align 8, !tbaa !452
  %34 = call noundef i32 @_ZNK11id_var_listILin1ELin1EE6get_idEv(ptr noundef nonnull align 8 dereferenceable(16) %33)
  %35 = load i32, ptr %8, align 8
  %36 = and i32 %34, 255
  %37 = and i32 %35, -256
  %38 = or i32 %37, %36
  store i32 %38, ptr %8, align 8
  %39 = getelementptr inbounds nuw %class.id_var_list, ptr %8, i32 0, i32 1
  %40 = load ptr, ptr %39, align 8, !tbaa !452
  %41 = call noundef ptr @_ZNK11id_var_listILin1ELin1EE8get_nextEv(ptr noundef nonnull align 8 dereferenceable(16) %40)
  %42 = getelementptr inbounds nuw %class.id_var_list, ptr %8, i32 0, i32 1
  store ptr %41, ptr %42, align 8, !tbaa !452
  br label %43

43:                                               ; preds = %23, %16
  br label %67

44:                                               ; preds = %2
  call void @llvm.lifetime.start.p0(i64 8, ptr %5) #3
  store ptr %8, ptr %5, align 8, !tbaa !332
  call void @llvm.lifetime.start.p0(i64 8, ptr %6) #3
  %45 = load ptr, ptr %5, align 8, !tbaa !332
  %46 = call noundef ptr @_ZNK11id_var_listILin1ELin1EE8get_nextEv(ptr noundef nonnull align 8 dereferenceable(16) %45)
  store ptr %46, ptr %6, align 8, !tbaa !332
  br label %47

47:                                               ; preds = %59, %44
  %48 = load ptr, ptr %6, align 8, !tbaa !332
  %49 = icmp ne ptr %48, null
  br i1 %49, label %50, label %63

50:                                               ; preds = %47
  %51 = load ptr, ptr %6, align 8, !tbaa !332
  %52 = call noundef i32 @_ZNK11id_var_listILin1ELin1EE6get_idEv(ptr noundef nonnull align 8 dereferenceable(16) %51)
  %53 = load i32, ptr %4, align 4, !tbaa !10
  %54 = icmp eq i32 %52, %53
  br i1 %54, label %55, label %59

55:                                               ; preds = %50
  %56 = load ptr, ptr %5, align 8, !tbaa !332
  %57 = load ptr, ptr %6, align 8, !tbaa !332
  %58 = call noundef ptr @_ZNK11id_var_listILin1ELin1EE8get_nextEv(ptr noundef nonnull align 8 dereferenceable(16) %57)
  call void @_ZN11id_var_listILin1ELin1EE8set_nextEPS0_(ptr noundef nonnull align 8 dereferenceable(16) %56, ptr noundef %58)
  store i32 1, ptr %7, align 4
  br label %64

59:                                               ; preds = %50
  %60 = load ptr, ptr %6, align 8, !tbaa !332
  store ptr %60, ptr %5, align 8, !tbaa !332
  %61 = load ptr, ptr %6, align 8, !tbaa !332
  %62 = call noundef ptr @_ZNK11id_var_listILin1ELin1EE8get_nextEv(ptr noundef nonnull align 8 dereferenceable(16) %61)
  store ptr %62, ptr %6, align 8, !tbaa !332
  br label %47, !llvm.loop !501

63:                                               ; preds = %47
  call void @_Z26notify_assertion_violationPKciS0_(ptr noundef @.str.33, i32 noundef 150, ptr noundef @.str.3)
  call void @_Z18invoke_exit_actionj(i32 noundef 114)
  store i32 0, ptr %7, align 4
  br label %64

64:                                               ; preds = %63, %55
  call void @llvm.lifetime.end.p0(i64 8, ptr %6) #3
  call void @llvm.lifetime.end.p0(i64 8, ptr %5) #3
  %65 = load i32, ptr %7, align 4
  switch i32 %65, label %68 [
    i32 0, label %66
    i32 1, label %67
  ]

66:                                               ; preds = %64
  br label %67

67:                                               ; preds = %64, %66, %43
  ret void

68:                                               ; preds = %64
  unreachable
}

; Function Attrs: mustprogress uwtable
define linkonce_odr hidden noundef i32 @_ZNK11id_var_listILin1ELin1EE4findEi(ptr noundef nonnull align 8 dereferenceable(16) %0, i32 noundef %1) #4 comdat align 2 {
  %3 = alloca i32, align 4
  %4 = alloca ptr, align 8
  %5 = alloca i32, align 4
  %6 = alloca ptr, align 8
  %7 = alloca i32, align 4
  store ptr %0, ptr %4, align 8, !tbaa !332
  store i32 %1, ptr %5, align 4, !tbaa !10
  %8 = load ptr, ptr %4, align 8
  %9 = call noundef zeroext i1 @_ZNK11id_var_listILin1ELin1EE5emptyEv(ptr noundef nonnull align 8 dereferenceable(16) %8)
  br i1 %9, label %10, label %11

10:                                               ; preds = %2
  store i32 -1, ptr %3, align 4
  br label %28

11:                                               ; preds = %2
  call void @llvm.lifetime.start.p0(i64 8, ptr %6) #3
  store ptr %8, ptr %6, align 8, !tbaa !332
  br label %12

12:                                               ; preds = %23, %11
  %13 = load i32, ptr %5, align 4, !tbaa !10
  %14 = load ptr, ptr %6, align 8, !tbaa !332
  %15 = call noundef i32 @_ZNK11id_var_listILin1ELin1EE6get_idEv(ptr noundef nonnull align 8 dereferenceable(16) %14)
  %16 = icmp eq i32 %13, %15
  br i1 %16, label %17, label %20

17:                                               ; preds = %12
  %18 = load ptr, ptr %6, align 8, !tbaa !332
  %19 = call noundef i32 @_ZNK11id_var_listILin1ELin1EE7get_varEv(ptr noundef nonnull align 8 dereferenceable(16) %18)
  store i32 %19, ptr %3, align 4
  store i32 1, ptr %7, align 4
  br label %27

20:                                               ; preds = %12
  %21 = load ptr, ptr %6, align 8, !tbaa !332
  %22 = call noundef ptr @_ZNK11id_var_listILin1ELin1EE8get_nextEv(ptr noundef nonnull align 8 dereferenceable(16) %21)
  store ptr %22, ptr %6, align 8, !tbaa !332
  br label %23

23:                                               ; preds = %20
  %24 = load ptr, ptr %6, align 8, !tbaa !332
  %25 = icmp ne ptr %24, null
  br i1 %25, label %12, label %26, !llvm.loop !498

26:                                               ; preds = %23
  store i32 -1, ptr %3, align 4
  store i32 1, ptr %7, align 4
  br label %27

27:                                               ; preds = %26, %17
  call void @llvm.lifetime.end.p0(i64 8, ptr %6) #3
  br label %28

28:                                               ; preds = %27, %10
  %29 = load i32, ptr %3, align 4
  ret i32 %29
}

; Function Attrs: mustprogress nounwind uwtable
define linkonce_odr hidden noundef ptr @_ZNK3euf5enode8get_rootEv(ptr noundef nonnull align 8 dereferenceable(176) %0) #6 comdat align 2 {
  %2 = alloca ptr, align 8
  store ptr %0, ptr %2, align 8, !tbaa !15
  %3 = load ptr, ptr %2, align 8
  %4 = getelementptr inbounds nuw %"class.euf::enode", ptr %3, i32 0, i32 18
  %5 = load ptr, ptr %4, align 8, !tbaa !98
  ret ptr %5
}

; Function Attrs: mustprogress uwtable
define linkonce_odr hidden void @_ZN3euf5enode10del_th_varEi(ptr noundef nonnull align 8 dereferenceable(176) %0, i32 noundef %1) #4 comdat align 2 {
  %3 = alloca ptr, align 8
  %4 = alloca i32, align 4
  store ptr %0, ptr %3, align 8, !tbaa !15
  store i32 %1, ptr %4, align 4, !tbaa !10
  %5 = load ptr, ptr %3, align 8
  %6 = getelementptr inbounds nuw %"class.euf::enode", ptr %5, i32 0, i32 21
  %7 = load i32, ptr %4, align 4, !tbaa !10
  call void @_ZN11id_var_listILin1ELin1EE7del_varEi(ptr noundef nonnull align 8 dereferenceable(16) %6, i32 noundef %7)
  ret void
}

; Function Attrs: mustprogress uwtable
define linkonce_odr hidden noundef i32 @_ZNK3euf5enode10get_th_varEi(ptr noundef nonnull align 8 dereferenceable(176) %0, i32 noundef %1) #4 comdat align 2 {
  %3 = alloca ptr, align 8
  %4 = alloca i32, align 4
  store ptr %0, ptr %3, align 8, !tbaa !15
  store i32 %1, ptr %4, align 4, !tbaa !10
  %5 = load ptr, ptr %3, align 8
  %6 = getelementptr inbounds nuw %"class.euf::enode", ptr %5, i32 0, i32 21
  %7 = load i32, ptr %4, align 4, !tbaa !10
  %8 = call noundef i32 @_ZNK11id_var_listILin1ELin1EE4findEi(ptr noundef nonnull align 8 dereferenceable(16) %6, i32 noundef %7)
  ret i32 %8
}

; Function Attrs: mustprogress uwtable
define hidden void @_ZN3euf6egraph15undo_add_th_varEPNS_5enodeEi(ptr noundef nonnull align 8 dereferenceable(536) %0, ptr noundef %1, i32 noundef %2) #4 align 2 {
  %4 = alloca ptr, align 8
  %5 = alloca ptr, align 8
  %6 = alloca i32, align 4
  %7 = alloca i32, align 4
  %8 = alloca ptr, align 8
  store ptr %0, ptr %4, align 8, !tbaa !3
  store ptr %1, ptr %5, align 8, !tbaa !15
  store i32 %2, ptr %6, align 4, !tbaa !10
  call void @llvm.lifetime.start.p0(i64 4, ptr %7) #3
  %9 = load ptr, ptr %5, align 8, !tbaa !15
  %10 = load i32, ptr %6, align 4, !tbaa !10
  %11 = call noundef i32 @_ZNK3euf5enode10get_th_varEi(ptr noundef nonnull align 8 dereferenceable(176) %9, i32 noundef %10)
  store i32 %11, ptr %7, align 4, !tbaa !10
  %12 = load ptr, ptr %5, align 8, !tbaa !15
  %13 = load i32, ptr %6, align 4, !tbaa !10
  call void @_ZN3euf5enode10del_th_varEi(ptr noundef nonnull align 8 dereferenceable(176) %12, i32 noundef %13)
  call void @llvm.lifetime.start.p0(i64 8, ptr %8) #3
  %14 = load ptr, ptr %5, align 8, !tbaa !15
  %15 = call noundef ptr @_ZNK3euf5enode8get_rootEv(ptr noundef nonnull align 8 dereferenceable(176) %14)
  store ptr %15, ptr %8, align 8, !tbaa !15
  %16 = load ptr, ptr %8, align 8, !tbaa !15
  %17 = load ptr, ptr %5, align 8, !tbaa !15
  %18 = icmp ne ptr %16, %17
  br i1 %18, label %19, label %28

19:                                               ; preds = %3
  %20 = load ptr, ptr %8, align 8, !tbaa !15
  %21 = load i32, ptr %6, align 4, !tbaa !10
  %22 = call noundef i32 @_ZNK3euf5enode10get_th_varEi(ptr noundef nonnull align 8 dereferenceable(176) %20, i32 noundef %21)
  %23 = load i32, ptr %7, align 4, !tbaa !10
  %24 = icmp eq i32 %22, %23
  br i1 %24, label %25, label %28

25:                                               ; preds = %19
  %26 = load ptr, ptr %8, align 8, !tbaa !15
  %27 = load i32, ptr %6, align 4, !tbaa !10
  call void @_ZN3euf5enode10del_th_varEi(ptr noundef nonnull align 8 dereferenceable(176) %26, i32 noundef %27)
  br label %28

28:                                               ; preds = %25, %19, %3
  call void @llvm.lifetime.end.p0(i64 8, ptr %8) #3
  call void @llvm.lifetime.end.p0(i64 4, ptr %7) #3
  ret void
}