; Function Attrs: mustprogress uwtable
define hidden void @_ZN3euf6egraph15undo_add_th_varEPNS_5enodeEi(ptr nonnull readnone align 8 captures(none) %0, ptr noundef captures(address) %1, i32 noundef %2) local_unnamed_addr #3 align 2 {
  %4 = getelementptr inbounds nuw i8, ptr %1, i64 88
  %5 = load i32, ptr %4, align 8
  %6 = icmp ugt i32 %5, -257
  br i1 %6, label %_ZNK3euf5enode10get_th_varEi.exit, label %.preheader.i.i

.preheader.i.i:                                   ; preds = %3, %13
  %.0.i.i = phi ptr [ %15, %13 ], [ %4, %3 ]
  %7 = load i32, ptr %.0.i.i, align 8
  %8 = shl i32 %7, 24
  %9 = ashr exact i32 %8, 24
  %10 = icmp eq i32 %2, %9
  br i1 %10, label %11, label %13

11:                                               ; preds = %.preheader.i.i
  %12 = ashr i32 %7, 8
  br label %_ZNK3euf5enode10get_th_varEi.exit

13:                                               ; preds = %.preheader.i.i
  %14 = getelementptr inbounds nuw i8, ptr %.0.i.i, i64 8
  %15 = load ptr, ptr %14, align 8, !tbaa !244
  %.not.i.i = icmp eq ptr %15, null
  br i1 %.not.i.i, label %_ZNK3euf5enode10get_th_varEi.exit, label %.preheader.i.i, !llvm.loop !248

_ZNK3euf5enode10get_th_varEi.exit:                ; preds = %13, %3, %11
  %.06.i.i = phi i32 [ -1, %3 ], [ %12, %11 ], [ -1, %13 ]
  %16 = shl i32 %5, 24
  %17 = ashr exact i32 %16, 24
  %18 = icmp eq i32 %17, %2
  br i1 %18, label %19, label %.preheader.i.i11

19:                                               ; preds = %_ZNK3euf5enode10get_th_varEi.exit
  %20 = getelementptr inbounds nuw i8, ptr %1, i64 96
  %21 = load ptr, ptr %20, align 8, !tbaa !244
  %.not12.i.i = icmp eq ptr %21, null
  br i1 %.not12.i.i, label %22, label %23

22:                                               ; preds = %19
  store i32 -1, ptr %4, align 8
  br label %_ZN3euf5enode10del_th_varEi.exit

23:                                               ; preds = %19
  %24 = load i32, ptr %21, align 8
  %25 = and i32 %24, -256
  %26 = and i32 %5, 255
  %27 = or disjoint i32 %25, %26
  store i32 %27, ptr %4, align 8
  %28 = load i32, ptr %21, align 8
  %29 = and i32 %28, 255
  %30 = or disjoint i32 %29, %25
  store i32 %30, ptr %4, align 8
  %31 = getelementptr inbounds nuw i8, ptr %21, i64 8
  %32 = load ptr, ptr %31, align 8, !tbaa !244
  store ptr %32, ptr %20, align 8, !tbaa !244
  br label %_ZN3euf5enode10del_th_varEi.exit

.preheader.i.i11:                                 ; preds = %_ZNK3euf5enode10get_th_varEi.exit, %33
  %.09.i.i = phi ptr [ %.0.i.i12, %33 ], [ %4, %_ZNK3euf5enode10get_th_varEi.exit ]
  %.0.in.i.i = getelementptr inbounds nuw i8, ptr %.09.i.i, i64 8
  %.0.i.i12 = load ptr, ptr %.0.in.i.i, align 8, !tbaa !244
  %.not.i.i13 = icmp eq ptr %.0.i.i12, null
  br i1 %.not.i.i13, label %41, label %33

33:                                               ; preds = %.preheader.i.i11
  %34 = load i32, ptr %.0.i.i12, align 8
  %35 = shl i32 %34, 24
  %36 = ashr exact i32 %35, 24
  %37 = icmp eq i32 %36, %2
  br i1 %37, label %38, label %.preheader.i.i11, !llvm.loop !251

38:                                               ; preds = %33
  %.0.in.i.i.le = getelementptr inbounds nuw i8, ptr %.09.i.i, i64 8
  %39 = getelementptr inbounds nuw i8, ptr %.0.i.i12, i64 8
  %40 = load ptr, ptr %39, align 8, !tbaa !244
  store ptr %40, ptr %.0.in.i.i.le, align 8, !tbaa !244
  br label %_ZN3euf5enode10del_th_varEi.exit

41:                                               ; preds = %.preheader.i.i11
  tail call void @_Z26notify_assertion_violationPKciS0_(ptr noundef nonnull @.str.33, i32 noundef 150, ptr noundef nonnull @.str.3)
  tail call void @_Z18invoke_exit_actionj(i32 noundef 114)
  br label %_ZN3euf5enode10del_th_varEi.exit

_ZN3euf5enode10del_th_varEi.exit:                 ; preds = %22, %23, %38, %41
  %42 = getelementptr inbounds nuw i8, ptr %1, i64 64
  %43 = load ptr, ptr %42, align 8, !tbaa !32
  %.not = icmp eq ptr %43, %1
  br i1 %.not, label %_ZN3euf5enode10del_th_varEi.exit26, label %44

44:                                               ; preds = %_ZN3euf5enode10del_th_varEi.exit
  %45 = getelementptr inbounds nuw i8, ptr %43, i64 88
  %46 = load i32, ptr %45, align 8
  %47 = icmp ugt i32 %46, -257
  br i1 %47, label %_ZNK3euf5enode10get_th_varEi.exit18, label %.preheader.i.i14

.preheader.i.i14:                                 ; preds = %44, %54
  %.0.i.i15 = phi ptr [ %56, %54 ], [ %45, %44 ]
  %48 = load i32, ptr %.0.i.i15, align 8
  %49 = shl i32 %48, 24
  %50 = ashr exact i32 %49, 24
  %51 = icmp eq i32 %2, %50
  br i1 %51, label %52, label %54

52:                                               ; preds = %.preheader.i.i14
  %53 = ashr i32 %48, 8
  br label %_ZNK3euf5enode10get_th_varEi.exit18

54:                                               ; preds = %.preheader.i.i14
  %55 = getelementptr inbounds nuw i8, ptr %.0.i.i15, i64 8
  %56 = load ptr, ptr %55, align 8, !tbaa !244
  %.not.i.i16 = icmp eq ptr %56, null
  br i1 %.not.i.i16, label %_ZNK3euf5enode10get_th_varEi.exit18, label %.preheader.i.i14, !llvm.loop !248

_ZNK3euf5enode10get_th_varEi.exit18:              ; preds = %54, %44, %52
  %.06.i.i17 = phi i32 [ -1, %44 ], [ %53, %52 ], [ -1, %54 ]
  %57 = icmp eq i32 %.06.i.i17, %.06.i.i
  br i1 %57, label %58, label %_ZN3euf5enode10del_th_varEi.exit26

58:                                               ; preds = %_ZNK3euf5enode10get_th_varEi.exit18
  %59 = shl i32 %46, 24
  %60 = ashr exact i32 %59, 24
  %61 = icmp eq i32 %60, %2
  br i1 %61, label %62, label %.preheader.i.i19

62:                                               ; preds = %58
  %63 = getelementptr inbounds nuw i8, ptr %43, i64 96
  %64 = load ptr, ptr %63, align 8, !tbaa !244
  %.not12.i.i25 = icmp eq ptr %64, null
  br i1 %.not12.i.i25, label %65, label %66

65:                                               ; preds = %62
  store i32 -1, ptr %45, align 8
  br label %_ZN3euf5enode10del_th_varEi.exit26

66:                                               ; preds = %62
  %67 = load i32, ptr %64, align 8
  %68 = and i32 %67, -256
  %69 = and i32 %46, 255
  %70 = or disjoint i32 %68, %69
  store i32 %70, ptr %45, align 8
  %71 = load i32, ptr %64, align 8
  %72 = and i32 %71, 255
  %73 = or disjoint i32 %72, %68
  store i32 %73, ptr %45, align 8
  %74 = getelementptr inbounds nuw i8, ptr %64, i64 8
  %75 = load ptr, ptr %74, align 8, !tbaa !244
  store ptr %75, ptr %63, align 8, !tbaa !244
  br label %_ZN3euf5enode10del_th_varEi.exit26

.preheader.i.i19:                                 ; preds = %58, %76
  %.09.i.i20 = phi ptr [ %.0.i.i22, %76 ], [ %45, %58 ]
  %.0.in.i.i21 = getelementptr inbounds nuw i8, ptr %.09.i.i20, i64 8
  %.0.i.i22 = load ptr, ptr %.0.in.i.i21, align 8, !tbaa !244
  %.not.i.i23 = icmp eq ptr %.0.i.i22, null
  br i1 %.not.i.i23, label %84, label %76

76:                                               ; preds = %.preheader.i.i19
  %77 = load i32, ptr %.0.i.i22, align 8
  %78 = shl i32 %77, 24
  %79 = ashr exact i32 %78, 24
  %80 = icmp eq i32 %79, %2
  br i1 %80, label %81, label %.preheader.i.i19, !llvm.loop !251

81:                                               ; preds = %76
  %.0.in.i.i21.le = getelementptr inbounds nuw i8, ptr %.09.i.i20, i64 8
  %82 = getelementptr inbounds nuw i8, ptr %.0.i.i22, i64 8
  %83 = load ptr, ptr %82, align 8, !tbaa !244
  store ptr %83, ptr %.0.in.i.i21.le, align 8, !tbaa !244
  br label %_ZN3euf5enode10del_th_varEi.exit26

84:                                               ; preds = %.preheader.i.i19
  tail call void @_Z26notify_assertion_violationPKciS0_(ptr noundef nonnull @.str.33, i32 noundef 150, ptr noundef nonnull @.str.3)
  tail call void @_Z18invoke_exit_actionj(i32 noundef 114)
  br label %_ZN3euf5enode10del_th_varEi.exit26

_ZN3euf5enode10del_th_varEi.exit26:               ; preds = %84, %81, %66, %65, %_ZNK3euf5enode10get_th_varEi.exit18, %_ZN3euf5enode10del_th_varEi.exit
  ret void
}